target datalayout = "e-m:e-p270:32:32-p271:32:32-p272:64:64-i64:64-i128:128-f80:128-n8:16:32:64-S128"
target triple = "x86_64-pc-linux-gnu"

%struct._address = type { i32, i32, ptr, ptr }
%struct._et_dissector_info = type { ptr }
%struct._packet_info = type { ptr, ptr, i32, i32, %struct.nstime_t, %struct.nstime_t, %struct.nstime_t, i32, ptr, ptr, ptr, ptr, %struct._address, %struct._address, %struct._address, %struct._address, %struct._address, %struct._address, i32, ptr, i32, %struct.anon, i32, i32, i32, i32, ptr, i32, ptr, ptr, i16, i16, i32, i32, i16, i32, i32, ptr, ptr, ptr, i8, i8, i16, i16, i16, i32, i16, i16, ptr, ptr, ptr, ptr, ptr, i32 }
%struct.nstime_t = type { i64, i32 }
%struct.anon = type { i8, [3 x i8] }
%struct.ltp_tap_info_t = type { ptr, i8, %struct.ltp_session_id_t, ptr, i32, i32, i32 }
%struct.ltp_session_id_t = type { i64, i64 }
%struct._frame_data = type { i32, i32, i32, i32, i64, ptr, ptr, ptr, i16, i16, %struct.nstime_t, %struct.nstime_t, i32, i32, i8 }

@ltp_endp_dissector_info = internal global %struct._et_dissector_info { ptr @ltp_endp_get_filter_type }, align 8

; Function Attrs: nounwind uwtable
define internal void @set_address(ptr noundef %0, i32 noundef %1, i32 noundef %2, ptr noundef %3) #0 {
  %5 = alloca ptr, align 8
  %6 = alloca i32, align 4
  %7 = alloca i32, align 4
  %8 = alloca ptr, align 8
  store ptr %0, ptr %5, align 8
  store i32 %1, ptr %6, align 4
  store i32 %2, ptr %7, align 4
  store ptr %3, ptr %8, align 8
  %9 = load i32, ptr %7, align 4
  %10 = icmp eq i32 %9, 0
  br i1 %10, label %11, label %14

11:                                               ; preds = %4
  br label %12

12:                                               ; preds = %11
  br label %13

13:                                               ; preds = %12
  br label %19

14:                                               ; preds = %4
  br label %15

15:                                               ; preds = %14
  br label %16

16:                                               ; preds = %15
  br label %17

17:                                               ; preds = %16
  br label %18

18:                                               ; preds = %17
  br label %19

19:                                               ; preds = %18, %13
  %20 = load i32, ptr %6, align 4
  %21 = load ptr, ptr %5, align 8
  %22 = getelementptr inbounds %struct._address, ptr %21, i32 0, i32 0
  store i32 %20, ptr %22, align 8
  %23 = load i32, ptr %7, align 4
  %24 = load ptr, ptr %5, align 8
  %25 = getelementptr inbounds %struct._address, ptr %24, i32 0, i32 1
  store i32 %23, ptr %25, align 4
  %26 = load ptr, ptr %8, align 8
  %27 = load ptr, ptr %5, align 8
  %28 = getelementptr inbounds %struct._address, ptr %27, i32 0, i32 2
  store ptr %26, ptr %28, align 8
  %29 = load ptr, ptr %5, align 8
  %30 = getelementptr inbounds %struct._address, ptr %29, i32 0, i32 3
  store ptr null, ptr %30, align 8
  ret void
}

; Function Attrs: nounwind uwtable
define internal i32 @ltp_endp_packet(ptr noundef %0, ptr noundef %1, ptr noundef %2, ptr noundef %3, i32 noundef %4) #0 {
  %6 = alloca ptr, align 8
  %7 = alloca ptr, align 8
  %8 = alloca ptr, align 8
  %9 = alloca ptr, align 8
  %10 = alloca i32, align 4
  %11 = alloca ptr, align 8
  %12 = alloca ptr, align 8
  %13 = alloca ptr, align 8
  %14 = alloca i32, align 4
  store ptr %0, ptr %6, align 8
  store ptr %1, ptr %7, align 8
  store ptr %2, ptr %8, align 8
  store ptr %3, ptr %9, align 8
  store i32 %4, ptr %10, align 4
  %15 = load ptr, ptr %6, align 8
  store ptr %15, ptr %11, align 8
  %16 = load ptr, ptr %9, align 8
  store ptr %16, ptr %12, align 8
  %17 = load ptr, ptr %7, align 8
  %18 = getelementptr inbounds %struct._packet_info, ptr %17, i32 0, i32 50
  %19 = load ptr, ptr %18, align 8
  %20 = call noalias ptr @wmem_alloc0(ptr noundef %19, i64 noundef 24)
  store ptr %20, ptr %13, align 8
  %21 = load ptr, ptr %13, align 8
  %22 = load ptr, ptr %12, align 8
  %23 = getelementptr inbounds %struct.ltp_tap_info_t, ptr %22, i32 0, i32 2
  %24 = getelementptr inbounds %struct.ltp_session_id_t, ptr %23, i32 0, i32 0
  call void @set_address(ptr noundef %21, i32 noundef 12, i32 noundef 8, ptr noundef %24)
  %25 = load ptr, ptr %12, align 8
  %26 = getelementptr inbounds %struct.ltp_tap_info_t, ptr %25, i32 0, i32 1
  %27 = load i8, ptr %26, align 8
  %28 = zext i8 %27 to i32
  switch i32 %28, label %30 [
    i32 8, label %29
    i32 13, label %29
    i32 14, label %29
  ]

29:                                               ; preds = %5, %5, %5
  store i32 0, ptr %14, align 4
  br label %31

30:                                               ; preds = %5
  store i32 1, ptr %14, align 4
  br label %31

31:                                               ; preds = %30, %29
  %32 = load ptr, ptr %11, align 8
  %33 = load ptr, ptr %13, align 8
  %34 = load i32, ptr %14, align 4
  %35 = load ptr, ptr %7, align 8
  %36 = getelementptr inbounds %struct._packet_info, ptr %35, i32 0, i32 8
  %37 = load ptr, ptr %36, align 8
  %38 = getelementptr inbounds %struct._frame_data, ptr %37, i32 0, i32 1
  %39 = load i32, ptr %38, align 4
  call void @add_endpoint_table_data(ptr noundef %32, ptr noundef %33, i32 noundef 0, i32 noundef %34, i32 noundef 1, i32 noundef %39, ptr noundef @ltp_endp_dissector_info, i32 noundef 0)
  ret i32 1
}