; Function Attrs: nounwind uwtable
define internal noundef i32 @ltp_endp_packet(ptr noundef %0, ptr noundef readonly captures(none) %1, ptr readnone captures(none) %2, ptr noundef %3, i32 %4) #0 {
  %6 = getelementptr inbounds nuw i8, ptr %1, i64 408
  %7 = load ptr, ptr %6, align 8
  %8 = tail call noalias ptr @wmem_alloc0(ptr noundef %7, i64 noundef 24) #8
  %9 = getelementptr inbounds nuw i8, ptr %3, i64 16
  store i32 12, ptr %8, align 8
  %10 = getelementptr inbounds nuw i8, ptr %8, i64 4
  store i32 8, ptr %10, align 4
  %11 = getelementptr inbounds nuw i8, ptr %8, i64 8
  store ptr %9, ptr %11, align 8
  %12 = getelementptr inbounds nuw i8, ptr %8, i64 16
  store ptr null, ptr %12, align 8
  %13 = getelementptr inbounds nuw i8, ptr %3, i64 8
  %14 = load i8, ptr %13, align 8
  %switch.tableidx = add i8 %14, -8
  %15 = icmp ult i8 %switch.tableidx, 7
  br i1 %15, label %switch.lookup, label %17

switch.lookup:                                    ; preds = %5
  %16 = zext nneg i8 %switch.tableidx to i64
  %switch.gep = getelementptr inbounds nuw [7 x i32], ptr @switch.table.ltp_endp_packet, i64 0, i64 %16
  %switch.load = load i32, ptr %switch.gep, align 4
  br label %17

17:                                               ; preds = %5, %switch.lookup
  %.0 = phi i32 [ %switch.load, %switch.lookup ], [ 1, %5 ]
  %18 = getelementptr inbounds nuw i8, ptr %1, i64 80
  %19 = load ptr, ptr %18, align 8
  %20 = getelementptr inbounds nuw i8, ptr %19, i64 4
  %21 = load i32, ptr %20, align 4
  tail call void @add_endpoint_table_data(ptr noundef %0, ptr noundef nonnull %8, i32 noundef 0, i32 noundef %.0, i32 noundef 1, i32 noundef %21, ptr noundef nonnull @ltp_endp_dissector_info, i32 noundef 0) #8
  ret i32 1
}